; Function Attrs: mustprogress nounwind uwtable
define noundef i32 @LGBM_BoosterFree(ptr noundef %0) local_unnamed_addr #19 {
  %2 = icmp eq ptr %0, null
  br i1 %2, label %4, label %3

3:                                                ; preds = %1
  tail call void @_ZN8LightGBM7BoosterD2Ev(ptr noundef nonnull align 8 dereferenceable(1824) %0) #26
  tail call void @_ZdlPv(ptr noundef nonnull %0) #39
  br label %4

4:                                                ; preds = %3, %1
  ret i32 0
}